target datalayout = "e-m:e-p270:32:32-p271:32:32-p272:64:64-i64:64-i128:128-f80:128-n8:16:32:64-S128"
target triple = "x86_64-pc-linux-gnu"

%struct.gres_node_state = type { ptr, i64, i64, i8, i8, i64, ptr, i64, ptr, i16, i32, ptr, ptr, ptr, ptr, ptr, ptr, ptr, ptr, i16, ptr, ptr, ptr, ptr }

; Function Attrs: nounwind uwtable
define internal void @_gres_node_state_delete_topo(ptr noundef %0) #0 {
  %2 = alloca ptr, align 8
  %3 = alloca i32, align 4
  store ptr %0, ptr %2, align 8
  call void @llvm.lifetime.start.p0(i64 4, ptr %3) #11
  store i32 0, ptr %3, align 4
  br label %4

4:                                                ; preds = %111, %1
  %5 = load i32, ptr %3, align 4
  %6 = load ptr, ptr %2, align 8
  %7 = getelementptr inbounds nuw %struct.gres_node_state, ptr %6, i32 0, i32 9
  %8 = load i16, ptr %7, align 8
  %9 = zext i16 %8 to i32
  %10 = icmp slt i32 %5, %9
  br i1 %10, label %11, label %114

11:                                               ; preds = %4
  %12 = load ptr, ptr %2, align 8
  %13 = getelementptr inbounds nuw %struct.gres_node_state, ptr %12, i32 0, i32 14
  %14 = load ptr, ptr %13, align 8
  %15 = icmp ne ptr %14, null
  br i1 %15, label %16, label %42

16:                                               ; preds = %11
  br label %17

17:                                               ; preds = %16
  %18 = load ptr, ptr %2, align 8
  %19 = getelementptr inbounds nuw %struct.gres_node_state, ptr %18, i32 0, i32 14
  %20 = load ptr, ptr %19, align 8
  %21 = load i32, ptr %3, align 4
  %22 = sext i32 %21 to i64
  %23 = getelementptr inbounds ptr, ptr %20, i64 %22
  %24 = load ptr, ptr %23, align 8
  %25 = icmp ne ptr %24, null
  br i1 %25, label %26, label %33

26:                                               ; preds = %17
  %27 = load ptr, ptr %2, align 8
  %28 = getelementptr inbounds nuw %struct.gres_node_state, ptr %27, i32 0, i32 14
  %29 = load ptr, ptr %28, align 8
  %30 = load i32, ptr %3, align 4
  %31 = sext i32 %30 to i64
  %32 = getelementptr inbounds ptr, ptr %29, i64 %31
  call void @slurm_bit_free(ptr noundef %32)
  br label %33

33:                                               ; preds = %26, %17
  %34 = load ptr, ptr %2, align 8
  %35 = getelementptr inbounds nuw %struct.gres_node_state, ptr %34, i32 0, i32 14
  %36 = load ptr, ptr %35, align 8
  %37 = load i32, ptr %3, align 4
  %38 = sext i32 %37 to i64
  %39 = getelementptr inbounds ptr, ptr %36, i64 %38
  store ptr null, ptr %39, align 8
  br label %40

40:                                               ; preds = %33
  br label %41

41:                                               ; preds = %40
  br label %42

42:                                               ; preds = %41, %11
  %43 = load ptr, ptr %2, align 8
  %44 = getelementptr inbounds nuw %struct.gres_node_state, ptr %43, i32 0, i32 12
  %45 = load ptr, ptr %44, align 8
  %46 = icmp ne ptr %45, null
  br i1 %46, label %47, label %73

47:                                               ; preds = %42
  br label %48

48:                                               ; preds = %47
  %49 = load ptr, ptr %2, align 8
  %50 = getelementptr inbounds nuw %struct.gres_node_state, ptr %49, i32 0, i32 12
  %51 = load ptr, ptr %50, align 8
  %52 = load i32, ptr %3, align 4
  %53 = sext i32 %52 to i64
  %54 = getelementptr inbounds ptr, ptr %51, i64 %53
  %55 = load ptr, ptr %54, align 8
  %56 = icmp ne ptr %55, null
  br i1 %56, label %57, label %64

57:                                               ; preds = %48
  %58 = load ptr, ptr %2, align 8
  %59 = getelementptr inbounds nuw %struct.gres_node_state, ptr %58, i32 0, i32 12
  %60 = load ptr, ptr %59, align 8
  %61 = load i32, ptr %3, align 4
  %62 = sext i32 %61 to i64
  %63 = getelementptr inbounds ptr, ptr %60, i64 %62
  call void @slurm_bit_free(ptr noundef %63)
  br label %64

64:                                               ; preds = %57, %48
  %65 = load ptr, ptr %2, align 8
  %66 = getelementptr inbounds nuw %struct.gres_node_state, ptr %65, i32 0, i32 12
  %67 = load ptr, ptr %66, align 8
  %68 = load i32, ptr %3, align 4
  %69 = sext i32 %68 to i64
  %70 = getelementptr inbounds ptr, ptr %67, i64 %69
  store ptr null, ptr %70, align 8
  br label %71

71:                                               ; preds = %64
  br label %72

72:                                               ; preds = %71
  br label %73

73:                                               ; preds = %72, %42
  %74 = load ptr, ptr %2, align 8
  %75 = getelementptr inbounds nuw %struct.gres_node_state, ptr %74, i32 0, i32 13
  %76 = load ptr, ptr %75, align 8
  %77 = icmp ne ptr %76, null
  br i1 %77, label %78, label %104

78:                                               ; preds = %73
  br label %79

79:                                               ; preds = %78
  %80 = load ptr, ptr %2, align 8
  %81 = getelementptr inbounds nuw %struct.gres_node_state, ptr %80, i32 0, i32 13
  %82 = load ptr, ptr %81, align 8
  %83 = load i32, ptr %3, align 4
  %84 = sext i32 %83 to i64
  %85 = getelementptr inbounds ptr, ptr %82, i64 %84
  %86 = load ptr, ptr %85, align 8
  %87 = icmp ne ptr %86, null
  br i1 %87, label %88, label %95

88:                                               ; preds = %79
  %89 = load ptr, ptr %2, align 8
  %90 = getelementptr inbounds nuw %struct.gres_node_state, ptr %89, i32 0, i32 13
  %91 = load ptr, ptr %90, align 8
  %92 = load i32, ptr %3, align 4
  %93 = sext i32 %92 to i64
  %94 = getelementptr inbounds ptr, ptr %91, i64 %93
  call void @slurm_bit_free(ptr noundef %94)
  br label %95

95:                                               ; preds = %88, %79
  %96 = load ptr, ptr %2, align 8
  %97 = getelementptr inbounds nuw %struct.gres_node_state, ptr %96, i32 0, i32 13
  %98 = load ptr, ptr %97, align 8
  %99 = load i32, ptr %3, align 4
  %100 = sext i32 %99 to i64
  %101 = getelementptr inbounds ptr, ptr %98, i64 %100
  store ptr null, ptr %101, align 8
  br label %102

102:                                              ; preds = %95
  br label %103

103:                                              ; preds = %102
  br label %104

104:                                              ; preds = %103, %73
  %105 = load ptr, ptr %2, align 8
  %106 = getelementptr inbounds nuw %struct.gres_node_state, ptr %105, i32 0, i32 18
  %107 = load ptr, ptr %106, align 8
  %108 = load i32, ptr %3, align 4
  %109 = sext i32 %108 to i64
  %110 = getelementptr inbounds ptr, ptr %107, i64 %109
  call void @slurm_xfree(ptr noundef %110)
  br label %111

111:                                              ; preds = %104
  %112 = load i32, ptr %3, align 4
  %113 = add nsw i32 %112, 1
  store i32 %113, ptr %3, align 4
  br label %4, !llvm.loop !174

114:                                              ; preds = %4
  %115 = load ptr, ptr %2, align 8
  %116 = getelementptr inbounds nuw %struct.gres_node_state, ptr %115, i32 0, i32 14
  call void @slurm_xfree(ptr noundef %116)
  %117 = load ptr, ptr %2, align 8
  %118 = getelementptr inbounds nuw %struct.gres_node_state, ptr %117, i32 0, i32 12
  call void @slurm_xfree(ptr noundef %118)
  %119 = load ptr, ptr %2, align 8
  %120 = getelementptr inbounds nuw %struct.gres_node_state, ptr %119, i32 0, i32 15
  call void @slurm_xfree(ptr noundef %120)
  %121 = load ptr, ptr %2, align 8
  %122 = getelementptr inbounds nuw %struct.gres_node_state, ptr %121, i32 0, i32 16
  call void @slurm_xfree(ptr noundef %122)
  %123 = load ptr, ptr %2, align 8
  %124 = getelementptr inbounds nuw %struct.gres_node_state, ptr %123, i32 0, i32 13
  call void @slurm_xfree(ptr noundef %124)
  %125 = load ptr, ptr %2, align 8
  %126 = getelementptr inbounds nuw %struct.gres_node_state, ptr %125, i32 0, i32 17
  call void @slurm_xfree(ptr noundef %126)
  %127 = load ptr, ptr %2, align 8
  %128 = getelementptr inbounds nuw %struct.gres_node_state, ptr %127, i32 0, i32 18
  call void @slurm_xfree(ptr noundef %128)
  call void @llvm.lifetime.end.p0(i64 4, ptr %3) #11
  ret void
}