; Function Attrs: nounwind uwtable
define internal fastcc void @_gres_node_state_delete_topo(ptr noundef %0) unnamed_addr #2 {
  %2 = getelementptr inbounds nuw i8, ptr %0, i64 64
  %3 = load i16, ptr %2, align 8
  %.not41 = icmp eq i16 %3, 0
  br i1 %.not41, label %._crit_edge, label %.lr.ph

.lr.ph:                                           ; preds = %1
  %4 = getelementptr inbounds nuw i8, ptr %0, i64 96
  %5 = getelementptr inbounds nuw i8, ptr %0, i64 80
  %6 = getelementptr inbounds nuw i8, ptr %0, i64 88
  %7 = getelementptr inbounds nuw i8, ptr %0, i64 128
  br label %8

8:                                                ; preds = %.lr.ph, %35
  %indvars.iv = phi i64 [ 0, %.lr.ph ], [ %indvars.iv.next, %35 ]
  %9 = load ptr, ptr %4, align 8
  %.not = icmp eq ptr %9, null
  br i1 %.not, label %17, label %10

10:                                               ; preds = %8
  %11 = getelementptr inbounds nuw ptr, ptr %9, i64 %indvars.iv
  %12 = load ptr, ptr %11, align 8
  %.not35 = icmp eq ptr %12, null
  br i1 %.not35, label %14, label %13

13:                                               ; preds = %10
  tail call void @slurm_bit_free(ptr noundef nonnull %11) #28
  %.pre = load ptr, ptr %4, align 8
  br label %14

14:                                               ; preds = %13, %10
  %15 = phi ptr [ %.pre, %13 ], [ %9, %10 ]
  %16 = getelementptr inbounds nuw ptr, ptr %15, i64 %indvars.iv
  store ptr null, ptr %16, align 8
  br label %17

17:                                               ; preds = %14, %8
  %18 = load ptr, ptr %5, align 8
  %.not36 = icmp eq ptr %18, null
  br i1 %.not36, label %26, label %19

19:                                               ; preds = %17
  %20 = getelementptr inbounds nuw ptr, ptr %18, i64 %indvars.iv
  %21 = load ptr, ptr %20, align 8
  %.not37 = icmp eq ptr %21, null
  br i1 %.not37, label %23, label %22

22:                                               ; preds = %19
  tail call void @slurm_bit_free(ptr noundef nonnull %20) #28
  %.pre43 = load ptr, ptr %5, align 8
  br label %23

23:                                               ; preds = %22, %19
  %24 = phi ptr [ %.pre43, %22 ], [ %18, %19 ]
  %25 = getelementptr inbounds nuw ptr, ptr %24, i64 %indvars.iv
  store ptr null, ptr %25, align 8
  br label %26

26:                                               ; preds = %23, %17
  %27 = load ptr, ptr %6, align 8
  %.not38 = icmp eq ptr %27, null
  br i1 %.not38, label %35, label %28

28:                                               ; preds = %26
  %29 = getelementptr inbounds nuw ptr, ptr %27, i64 %indvars.iv
  %30 = load ptr, ptr %29, align 8
  %.not39 = icmp eq ptr %30, null
  br i1 %.not39, label %32, label %31

31:                                               ; preds = %28
  tail call void @slurm_bit_free(ptr noundef nonnull %29) #28
  %.pre44 = load ptr, ptr %6, align 8
  br label %32

32:                                               ; preds = %31, %28
  %33 = phi ptr [ %.pre44, %31 ], [ %27, %28 ]
  %34 = getelementptr inbounds nuw ptr, ptr %33, i64 %indvars.iv
  store ptr null, ptr %34, align 8
  br label %35

35:                                               ; preds = %32, %26
  %36 = load ptr, ptr %7, align 8
  %37 = getelementptr inbounds nuw ptr, ptr %36, i64 %indvars.iv
  tail call void @slurm_xfree(ptr noundef %37) #28
  %indvars.iv.next = add nuw nsw i64 %indvars.iv, 1
  %38 = load i16, ptr %2, align 8
  %39 = zext i16 %38 to i64
  %40 = icmp samesign ult i64 %indvars.iv.next, %39
  br i1 %40, label %8, label %._crit_edge, !llvm.loop !203

._crit_edge:                                      ; preds = %35, %1
  %41 = getelementptr inbounds nuw i8, ptr %0, i64 96
  tail call void @slurm_xfree(ptr noundef nonnull %41) #28
  %42 = getelementptr inbounds nuw i8, ptr %0, i64 80
  tail call void @slurm_xfree(ptr noundef nonnull %42) #28
  %43 = getelementptr inbounds nuw i8, ptr %0, i64 104
  tail call void @slurm_xfree(ptr noundef nonnull %43) #28
  %44 = getelementptr inbounds nuw i8, ptr %0, i64 112
  tail call void @slurm_xfree(ptr noundef nonnull %44) #28
  %45 = getelementptr inbounds nuw i8, ptr %0, i64 88
  tail call void @slurm_xfree(ptr noundef nonnull %45) #28
  %46 = getelementptr inbounds nuw i8, ptr %0, i64 120
  tail call void @slurm_xfree(ptr noundef nonnull %46) #28
  %47 = getelementptr inbounds nuw i8, ptr %0, i64 128
  tail call void @slurm_xfree(ptr noundef nonnull %47) #28
  ret void
}